; Function Attrs: mustprogress uwtable
define noundef zeroext i1 @_ZN32pxrInternal_v0_24__pxrReserved__10TfUnsetenvERKNSt7__cxx1112basic_stringIcSt11char_traitsIcESaIcEEE(ptr noundef nonnull align 8 dereferenceable(32) %0) local_unnamed_addr #0 personality ptr @__gxx_personality_v0 {
  %2 = alloca %"class.std::__cxx11::basic_string", align 8
  %3 = alloca %"class.std::allocator", align 1
  %4 = alloca %"class.pxrInternal_v0_24__pxrReserved__::TfCallContext", align 8
  %5 = alloca %"class.std::__cxx11::basic_string", align 8
  %6 = tail call noundef ptr @_ZNKSt7__cxx1112basic_stringIcSt11char_traitsIcESaIcEE5c_strEv(ptr noundef nonnull align 8 dereferenceable(32) %0) #8
  call void @_ZNSaIcEC1Ev(ptr noundef nonnull align 1 dereferenceable(1) %3) #8
  %7 = invoke noundef ptr @_ZNSt7__cxx1112basic_stringIcSt11char_traitsIcESaIcEE13_M_local_dataEv(ptr noundef nonnull align 8 dereferenceable(32) %2)
          to label %.noexc unwind label %18

.noexc:                                           ; preds = %1
  invoke void @_ZNSt7__cxx1112basic_stringIcSt11char_traitsIcESaIcEE12_Alloc_hiderC1EPcRKS3_(ptr noundef nonnull align 8 dereferenceable(8) %2, ptr noundef %7, ptr noundef nonnull align 1 dereferenceable(1) %3)
          to label %.noexc10 unwind label %18

.noexc10:                                         ; preds = %.noexc
  %8 = icmp eq ptr %6, null
  br i1 %8, label %9, label %13

9:                                                ; preds = %.noexc10
  invoke void @_ZSt19__throw_logic_errorPKc(ptr noundef nonnull @.str.3) #9
          to label %10 unwind label %11

10:                                               ; preds = %9
  unreachable

11:                                               ; preds = %13, %9
  %12 = landingpad { ptr, i32 }
          cleanup
  call void @_ZNSaIcED2Ev(ptr noundef nonnull align 1 dereferenceable(1) %2) #8
  br label %.body

13:                                               ; preds = %.noexc10
  %14 = call noundef i64 @strlen(ptr noundef nonnull dereferenceable(1) %6) #8
  %15 = getelementptr inbounds i8, ptr %6, i64 %14
  invoke void @_ZNSt7__cxx1112basic_stringIcSt11char_traitsIcESaIcEE12_M_constructIPKcEEvT_S8_St20forward_iterator_tag(ptr noundef nonnull align 8 dereferenceable(32) %2, ptr noundef nonnull %6, ptr noundef nonnull %15)
          to label %_ZNSt7__cxx1112basic_stringIcSt11char_traitsIcESaIcEEC2IS3_EEPKcRKS3_.exit unwind label %11

_ZNSt7__cxx1112basic_stringIcSt11char_traitsIcESaIcEEC2IS3_EEPKcRKS3_.exit: ; preds = %13
  %16 = invoke noundef zeroext i1 @_ZN32pxrInternal_v0_24__pxrReserved__13ArchRemoveEnvERKNSt7__cxx1112basic_stringIcSt11char_traitsIcESaIcEEE(ptr noundef nonnull align 8 dereferenceable(32) %2)
          to label %17 unwind label %20

17:                                               ; preds = %_ZNSt7__cxx1112basic_stringIcSt11char_traitsIcESaIcEEC2IS3_EEPKcRKS3_.exit
  call void @_ZNSt7__cxx1112basic_stringIcSt11char_traitsIcESaIcEED1Ev(ptr noundef nonnull align 8 dereferenceable(32) %2) #8
  call void @_ZNSaIcED1Ev(ptr noundef nonnull align 1 dereferenceable(1) %3) #8
  br i1 %16, label %32, label %22

18:                                               ; preds = %.noexc, %1
  %19 = landingpad { ptr, i32 }
          cleanup
  br label %.body

20:                                               ; preds = %_ZNSt7__cxx1112basic_stringIcSt11char_traitsIcESaIcEEC2IS3_EEPKcRKS3_.exit
  %21 = landingpad { ptr, i32 }
          cleanup
  call void @_ZNSt7__cxx1112basic_stringIcSt11char_traitsIcESaIcEED1Ev(ptr noundef nonnull align 8 dereferenceable(32) %2) #8
  br label %.body

.body:                                            ; preds = %18, %11, %20
  %.pn = phi { ptr, i32 } [ %21, %20 ], [ %19, %18 ], [ %12, %11 ]
  call void @_ZNSaIcED1Ev(ptr noundef nonnull align 1 dereferenceable(1) %3) #8
  br label %33

22:                                               ; preds = %17
  store ptr @.str, ptr %4, align 8
  %23 = getelementptr inbounds nuw i8, ptr %4, i64 8
  store ptr @__func__._ZN32pxrInternal_v0_24__pxrReserved__10TfUnsetenvERKNSt7__cxx1112basic_stringIcSt11char_traitsIcESaIcEEE, ptr %23, align 8
  %24 = getelementptr inbounds nuw i8, ptr %4, i64 16
  store i64 50, ptr %24, align 8
  %25 = getelementptr inbounds nuw i8, ptr %4, i64 24
  store ptr @__PRETTY_FUNCTION__._ZN32pxrInternal_v0_24__pxrReserved__10TfUnsetenvERKNSt7__cxx1112basic_stringIcSt11char_traitsIcESaIcEEE, ptr %25, align 8
  %26 = getelementptr inbounds nuw i8, ptr %4, i64 32
  store i8 0, ptr %26, align 8
  %27 = call noundef ptr @_ZNKSt7__cxx1112basic_stringIcSt11char_traitsIcESaIcEE5c_strEv(ptr noundef nonnull align 8 dereferenceable(32) %0) #8
  call void @_ZN32pxrInternal_v0_24__pxrReserved__12ArchStrerrorB5cxx11Ev(ptr dead_on_unwind nonnull writable sret(%"class.std::__cxx11::basic_string") align 8 %5)
  %28 = call noundef ptr @_ZNKSt7__cxx1112basic_stringIcSt11char_traitsIcESaIcEE5c_strEv(ptr noundef nonnull align 8 dereferenceable(32) %5) #8
  invoke void (ptr, ptr, ...) @_ZN32pxrInternal_v0_24__pxrReserved__20Tf_PostWarningHelperERKNS_13TfCallContextEPKcz(ptr noundef nonnull align 8 dereferenceable(33) %4, ptr noundef nonnull @.str.2, ptr noundef %27, ptr noundef %28)
          to label %29 unwind label %30

29:                                               ; preds = %22
  call void @_ZNSt7__cxx1112basic_stringIcSt11char_traitsIcESaIcEED1Ev(ptr noundef nonnull align 8 dereferenceable(32) %5) #8
  br label %32

30:                                               ; preds = %22
  %31 = landingpad { ptr, i32 }
          cleanup
  call void @_ZNSt7__cxx1112basic_stringIcSt11char_traitsIcESaIcEED1Ev(ptr noundef nonnull align 8 dereferenceable(32) %5) #8
  br label %33

32:                                               ; preds = %17, %29
  ret i1 %16

33:                                               ; preds = %30, %.body
  %.pn8 = phi { ptr, i32 } [ %31, %30 ], [ %.pn, %.body ]
  resume { ptr, i32 } %.pn8
}